; ModuleID = '21/877.c'
source_filename = "21/877.c"
target datalayout = "e-m:e-p270:32:32-p271:32:32-p272:64:64-i64:64-f80:128-n8:16:32:64-S128"
target triple = "x86_64-pc-linux-gnu"

@.str = private unnamed_addr constant [3 x i8] c"%d\00", align 1
@.str.1 = private unnamed_addr constant [5 x i8] c"%.0f\00", align 1
@.str.2 = private unnamed_addr constant [10 x i8] c"%.0f,%.0f\00", align 1

; Function Attrs: noinline nounwind uwtable
define dso_local void @main() #0 {
  %1 = alloca i32, align 4
  %2 = alloca float, align 4
  %3 = alloca i32, align 4
  %4 = alloca i8*, align 8
  %5 = alloca i64, align 8
  %6 = alloca float, align 4
  %7 = alloca float, align 4
  %8 = call i32 (i8*, ...) @__isoc99_scanf(i8* getelementptr inbounds ([3 x i8], [3 x i8]* @.str, i64 0, i64 0), i32* %1)
  store float 0.000000e+00, float* %2, align 4
  store i32 0, i32* %3, align 4
  %9 = load i32, i32* %1, align 4
  %10 = zext i32 %9 to i64
  %11 = call i8* @llvm.stacksave()
  store i8* %11, i8** %4, align 8
  %12 = alloca i32, i64 %10, align 16
  store i64 %10, i64* %5, align 8
  br label %13

13:                                               ; preds = %17, %0
  %14 = load i32, i32* %3, align 4
  %15 = load i32, i32* %1, align 4
  %16 = icmp slt i32 %14, %15
  br i1 %16, label %17, label %31

17:                                               ; preds = %13
  %18 = load i32, i32* %3, align 4
  %19 = sext i32 %18 to i64
  %20 = getelementptr inbounds i32, i32* %12, i64 %19
  %21 = call i32 (i8*, ...) @__isoc99_scanf(i8* getelementptr inbounds ([3 x i8], [3 x i8]* @.str, i64 0, i64 0), i32* %20)
  %22 = load float, float* %2, align 4
  %23 = load i32, i32* %3, align 4
  %24 = sext i32 %23 to i64
  %25 = getelementptr inbounds i32, i32* %12, i64 %24
  %26 = load i32, i32* %25, align 4
  %27 = sitofp i32 %26 to float
  %28 = fadd float %22, %27
  store float %28, float* %2, align 4
  %29 = load i32, i32* %3, align 4
  %30 = add nsw i32 %29, 1
  store i32 %30, i32* %3, align 4
  br label %13

31:                                               ; preds = %13
  %32 = load float, float* %2, align 4
  %33 = load i32, i32* %1, align 4
  %34 = sitofp i32 %33 to float
  %35 = fdiv float %32, %34
  store float %35, float* %2, align 4
  store i32 0, i32* %3, align 4
  %36 = load float, float* %2, align 4
  store float %36, float* %6, align 4
  %37 = load float, float* %2, align 4
  store float %37, float* %7, align 4
  br label %38

38:                                               ; preds = %70, %31
  %39 = load i32, i32* %3, align 4
  %40 = load i32, i32* %1, align 4
  %41 = icmp slt i32 %39, %40
  br i1 %41, label %42, label %73

42:                                               ; preds = %38
  %43 = load i32, i32* %3, align 4
  %44 = sext i32 %43 to i64
  %45 = getelementptr inbounds i32, i32* %12, i64 %44
  %46 = load i32, i32* %45, align 4
  %47 = sitofp i32 %46 to float
  %48 = load float, float* %6, align 4
  %49 = fcmp olt float %47, %48
  br i1 %49, label %50, label %56

50:                                               ; preds = %42
  %51 = load i32, i32* %3, align 4
  %52 = sext i32 %51 to i64
  %53 = getelementptr inbounds i32, i32* %12, i64 %52
  %54 = load i32, i32* %53, align 4
  %55 = sitofp i32 %54 to float
  store float %55, float* %6, align 4
  br label %56

56:                                               ; preds = %50, %42
  %57 = load i32, i32* %3, align 4
  %58 = sext i32 %57 to i64
  %59 = getelementptr inbounds i32, i32* %12, i64 %58
  %60 = load i32, i32* %59, align 4
  %61 = sitofp i32 %60 to float
  %62 = load float, float* %7, align 4
  %63 = fcmp ogt float %61, %62
  br i1 %63, label %64, label %70

64:                                               ; preds = %56
  %65 = load i32, i32* %3, align 4
  %66 = sext i32 %65 to i64
  %67 = getelementptr inbounds i32, i32* %12, i64 %66
  %68 = load i32, i32* %67, align 4
  %69 = sitofp i32 %68 to float
  store float %69, float* %7, align 4
  br label %70

70:                                               ; preds = %64, %56
  %71 = load i32, i32* %3, align 4
  %72 = add nsw i32 %71, 1
  store i32 %72, i32* %3, align 4
  br label %38

73:                                               ; preds = %38
  %74 = load float, float* %7, align 4
  %75 = load float, float* %2, align 4
  %76 = fsub float %74, %75
  %77 = load float, float* %2, align 4
  %78 = load float, float* %6, align 4
  %79 = fsub float %77, %78
  %80 = fcmp ogt float %76, %79
  br i1 %80, label %81, label %85

81:                                               ; preds = %73
  %82 = load float, float* %7, align 4
  %83 = fpext float %82 to double
  %84 = call i32 (i8*, ...) @printf(i8* getelementptr inbounds ([5 x i8], [5 x i8]* @.str.1, i64 0, i64 0), double %83)
  br label %104

85:                                               ; preds = %73
  %86 = load float, float* %7, align 4
  %87 = load float, float* %2, align 4
  %88 = fsub float %86, %87
  %89 = load float, float* %2, align 4
  %90 = load float, float* %6, align 4
  %91 = fsub float %89, %90
  %92 = fcmp olt float %88, %91
  br i1 %92, label %93, label %97

93:                                               ; preds = %85
  %94 = load float, float* %6, align 4
  %95 = fpext float %94 to double
  %96 = call i32 (i8*, ...) @printf(i8* getelementptr inbounds ([5 x i8], [5 x i8]* @.str.1, i64 0, i64 0), double %95)
  br label %103

97:                                               ; preds = %85
  %98 = load float, float* %6, align 4
  %99 = fpext float %98 to double
  %100 = load float, float* %7, align 4
  %101 = fpext float %100 to double
  %102 = call i32 (i8*, ...) @printf(i8* getelementptr inbounds ([10 x i8], [10 x i8]* @.str.2, i64 0, i64 0), double %99, double %101)
  br label %103

103:                                              ; preds = %97, %93
  br label %104

104:                                              ; preds = %103, %81
  %105 = load i8*, i8** %4, align 8
  call void @llvm.stackrestore(i8* %105)
  ret void
}

declare dso_local i32 @__isoc99_scanf(i8*, ...) #1

; Function Attrs: nounwind
declare i8* @llvm.stacksave() #2

declare dso_local i32 @printf(i8*, ...) #1

; Function Attrs: nounwind
declare void @llvm.stackrestore(i8*) #2


!llvm.module.flags = !{!0}
!llvm.ident = !{!1}

!0 = !{i32 1, !"wchar_size", i32 4}
!1 = !{!"clang version 10.0.0-4ubuntu1 "}
